target datalayout = "e-m:e-p270:32:32-p271:32:32-p272:64:64-i64:64-i128:128-f80:128-n8:16:32:64-S128"
target triple = "x86_64-pc-linux-gnu"

%struct.darktable_t = type { %struct.dt_codepath_t, i32, i32, ptr, ptr, ptr, ptr, ptr, ptr, ptr, ptr, ptr, ptr, ptr, ptr, ptr, ptr, ptr, ptr, ptr, ptr, ptr, ptr, ptr, ptr, ptr, ptr, ptr, ptr, ptr, [64 x %struct.dt_pthread_mutex_t], %struct.dt_pthread_mutex_t, %struct.dt_pthread_mutex_t, %struct.dt_pthread_mutex_t, %struct.dt_pthread_mutex_t, %struct.dt_pthread_mutex_t, ptr, ptr, ptr, ptr, ptr, ptr, ptr, ptr, ptr, ptr, ptr, ptr, ptr, %struct.dt_lua_state_t, ptr, double, ptr, i32, [47 x i32], i32, i32, ptr, ptr, %struct.dt_sys_resources_t, %struct.dt_backthumb_t, %struct.dt_gimp_t }
%struct.dt_codepath_t = type { i8, [3 x i8] }
%struct.dt_pthread_mutex_t = type { %union.pthread_mutex_t }
%union.pthread_mutex_t = type { %struct.__pthread_mutex_s }
%struct.__pthread_mutex_s = type { i32, i32, i32, i32, i32, i16, i16, %struct.__pthread_internal_list }
%struct.__pthread_internal_list = type { ptr, ptr }
%struct.dt_lua_state_t = type { i32 }
%struct.dt_sys_resources_t = type { i64, i64, ptr, ptr, i32 }
%struct.dt_backthumb_t = type { double, double, i32, i32, i32, i32 }
%struct.dt_gimp_t = type { i32, ptr, ptr, i32, i32 }

@darktable = external global %struct.darktable_t, align 8
@.str.2 = private unnamed_addr constant [41 x i8] c"[sql] %s:%d, function %s(): prepare \22%s\22\00", align 1
@.str.3 = private unnamed_addr constant [112 x i8] c"generated/home/dtcxzyw/WorkSpace/Projects/compilers/llvm-opt-benchmark/bench/darktable/darktable/src/libs/lib.c\00", align 1
@stderr = external global ptr, align 8
@.str.5 = private unnamed_addr constant [53 x i8] c"sqlite3 error: %s:%d, function %s(), query \22%s\22: %s\0A\00", align 1
@.str.6 = private unnamed_addr constant [41 x i8] c"sqlite3 error: %s:%d, function %s(): %s\0A\00", align 1
@__FUNCTION__.dt_lib_presets_remove = private unnamed_addr constant [22 x i8] c"dt_lib_presets_remove\00", align 1
@.str.10 = private unnamed_addr constant [93 x i8] c"DELETE FROM data.presets WHERE name=?1 AND operation=?2 AND op_version=?3 AND writeprotect=0\00", align 1

; Function Attrs: nounwind uwtable
define void @dt_lib_presets_remove(ptr noundef %0, ptr noundef %1, i32 noundef %2) #0 {
  %4 = alloca ptr, align 8
  %5 = alloca ptr, align 8
  %6 = alloca i32, align 4
  %7 = alloca ptr, align 8
  %8 = alloca i32, align 4
  %9 = alloca i32, align 4
  %10 = alloca i32, align 4
  %11 = alloca i32, align 4
  store ptr %0, ptr %4, align 8, !tbaa !63
  store ptr %1, ptr %5, align 8, !tbaa !63
  store i32 %2, ptr %6, align 4, !tbaa !62
  call void @llvm.lifetime.start.p0(i64 8, ptr %7) #12
  br label %12

12:                                               ; preds = %3
  br label %13

13:                                               ; preds = %12
  %14 = load i32, ptr getelementptr inbounds nuw (%struct.darktable_t, ptr @darktable, i32 0, i32 2), align 8, !tbaa !21
  %15 = and i32 256, %14
  %16 = icmp ne i32 %15, 0
  br i1 %16, label %17, label %23

17:                                               ; preds = %13
  %18 = load i32, ptr getelementptr inbounds nuw (%struct.darktable_t, ptr @darktable, i32 0, i32 2), align 8, !tbaa !21
  %19 = xor i32 %18, -1
  %20 = and i32 0, %19
  %21 = icmp ne i32 %20, 0
  br i1 %21, label %23, label %22

22:                                               ; preds = %17
  call void (ptr, ...) @dt_print_ext(ptr noundef @.str.2, ptr noundef @.str.3, i32 noundef 315, ptr noundef @__FUNCTION__.dt_lib_presets_remove, ptr noundef @.str.10)
  br label %23

23:                                               ; preds = %22, %17, %13
  br label %24

24:                                               ; preds = %23
  br label %25

25:                                               ; preds = %24
  call void @llvm.lifetime.start.p0(i64 4, ptr %8) #12
  %26 = load ptr, ptr getelementptr inbounds nuw (%struct.darktable_t, ptr @darktable, i32 0, i32 18), align 8, !tbaa !68
  %27 = call ptr @dt_database_get(ptr noundef %26)
  %28 = call i32 @sqlite3_prepare_v2(ptr noundef %27, ptr noundef @.str.10, i32 noundef -1, ptr noundef %7, ptr noundef null)
  store i32 %28, ptr %8, align 4, !tbaa !62
  %29 = load i32, ptr %8, align 4, !tbaa !62
  %30 = icmp ne i32 %29, 0
  br i1 %30, label %31, label %37

31:                                               ; preds = %25
  %32 = load ptr, ptr @stderr, align 8, !tbaa !69
  %33 = load ptr, ptr getelementptr inbounds nuw (%struct.darktable_t, ptr @darktable, i32 0, i32 18), align 8, !tbaa !68
  %34 = call ptr @dt_database_get(ptr noundef %33)
  %35 = call ptr @sqlite3_errmsg(ptr noundef %34)
  %36 = call i32 (ptr, ptr, ...) @fprintf(ptr noundef %32, ptr noundef @.str.5, ptr noundef @.str.3, i32 noundef 315, ptr noundef @__FUNCTION__.dt_lib_presets_remove, ptr noundef @.str.10, ptr noundef %35) #12
  br label %37

37:                                               ; preds = %31, %25
  call void @llvm.lifetime.end.p0(i64 4, ptr %8) #12
  br label %38

38:                                               ; preds = %37
  br label %39

39:                                               ; preds = %38
  call void @llvm.lifetime.start.p0(i64 4, ptr %9) #12
  %40 = load ptr, ptr %7, align 8, !tbaa !71
  %41 = load ptr, ptr %4, align 8, !tbaa !63
  %42 = call i32 @sqlite3_bind_text(ptr noundef %40, i32 noundef 1, ptr noundef %41, i32 noundef -1, ptr noundef inttoptr (i64 -1 to ptr))
  store i32 %42, ptr %9, align 4, !tbaa !62
  %43 = load i32, ptr %9, align 4, !tbaa !62
  %44 = icmp ne i32 %43, 0
  br i1 %44, label %45, label %51

45:                                               ; preds = %39
  %46 = load ptr, ptr @stderr, align 8, !tbaa !69
  %47 = load ptr, ptr getelementptr inbounds nuw (%struct.darktable_t, ptr @darktable, i32 0, i32 18), align 8, !tbaa !68
  %48 = call ptr @dt_database_get(ptr noundef %47)
  %49 = call ptr @sqlite3_errmsg(ptr noundef %48)
  %50 = call i32 (ptr, ptr, ...) @fprintf(ptr noundef %46, ptr noundef @.str.6, ptr noundef @.str.3, i32 noundef 317, ptr noundef @__FUNCTION__.dt_lib_presets_remove, ptr noundef %49) #12
  br label %51

51:                                               ; preds = %45, %39
  call void @llvm.lifetime.end.p0(i64 4, ptr %9) #12
  call void @llvm.lifetime.start.p0(i64 4, ptr %10) #12
  %52 = load ptr, ptr %7, align 8, !tbaa !71
  %53 = load ptr, ptr %5, align 8, !tbaa !63
  %54 = call i32 @sqlite3_bind_text(ptr noundef %52, i32 noundef 2, ptr noundef %53, i32 noundef -1, ptr noundef inttoptr (i64 -1 to ptr))
  store i32 %54, ptr %10, align 4, !tbaa !62
  %55 = load i32, ptr %10, align 4, !tbaa !62
  %56 = icmp ne i32 %55, 0
  br i1 %56, label %57, label %63

57:                                               ; preds = %51
  %58 = load ptr, ptr @stderr, align 8, !tbaa !69
  %59 = load ptr, ptr getelementptr inbounds nuw (%struct.darktable_t, ptr @darktable, i32 0, i32 18), align 8, !tbaa !68
  %60 = call ptr @dt_database_get(ptr noundef %59)
  %61 = call ptr @sqlite3_errmsg(ptr noundef %60)
  %62 = call i32 (ptr, ptr, ...) @fprintf(ptr noundef %58, ptr noundef @.str.6, ptr noundef @.str.3, i32 noundef 318, ptr noundef @__FUNCTION__.dt_lib_presets_remove, ptr noundef %61) #12
  br label %63

63:                                               ; preds = %57, %51
  call void @llvm.lifetime.end.p0(i64 4, ptr %10) #12
  call void @llvm.lifetime.start.p0(i64 4, ptr %11) #12
  %64 = load ptr, ptr %7, align 8, !tbaa !71
  %65 = load i32, ptr %6, align 4, !tbaa !62
  %66 = call i32 @sqlite3_bind_int(ptr noundef %64, i32 noundef 3, i32 noundef %65)
  store i32 %66, ptr %11, align 4, !tbaa !62
  %67 = load i32, ptr %11, align 4, !tbaa !62
  %68 = icmp ne i32 %67, 0
  br i1 %68, label %69, label %75

69:                                               ; preds = %63
  %70 = load ptr, ptr @stderr, align 8, !tbaa !69
  %71 = load ptr, ptr getelementptr inbounds nuw (%struct.darktable_t, ptr @darktable, i32 0, i32 18), align 8, !tbaa !68
  %72 = call ptr @dt_database_get(ptr noundef %71)
  %73 = call ptr @sqlite3_errmsg(ptr noundef %72)
  %74 = call i32 (ptr, ptr, ...) @fprintf(ptr noundef %70, ptr noundef @.str.6, ptr noundef @.str.3, i32 noundef 319, ptr noundef @__FUNCTION__.dt_lib_presets_remove, ptr noundef %73) #12
  br label %75

75:                                               ; preds = %69, %63
  call void @llvm.lifetime.end.p0(i64 4, ptr %11) #12
  %76 = load ptr, ptr %7, align 8, !tbaa !71
  %77 = call i32 @sqlite3_step(ptr noundef %76)
  %78 = load ptr, ptr %7, align 8, !tbaa !71
  %79 = call i32 @sqlite3_finalize(ptr noundef %78)
  call void @llvm.lifetime.end.p0(i64 8, ptr %7) #12
  ret void
}