; Function Attrs: nounwind uwtable
define void @dt_lib_presets_remove(ptr noundef %0, ptr noundef %1, i32 noundef %2) local_unnamed_addr #0 {
  %4 = alloca ptr, align 8
  call void @llvm.lifetime.start.p0(i64 8, ptr nonnull %4) #19
  %5 = load i32, ptr getelementptr inbounds nuw (i8, ptr @darktable, i64 8), align 8, !tbaa !59
  %6 = and i32 %5, 256
  %.not = icmp eq i32 %6, 0
  br i1 %.not, label %8, label %7

7:                                                ; preds = %3
  tail call void (ptr, ...) @dt_print_ext(ptr noundef nonnull @.str.2, ptr noundef nonnull @.str.3, i32 noundef 315, ptr noundef nonnull @__FUNCTION__.dt_lib_presets_remove, ptr noundef nonnull @.str.10) #19
  br label %8

8:                                                ; preds = %7, %3
  %9 = load ptr, ptr getelementptr inbounds nuw (i8, ptr @darktable, i64 136), align 8, !tbaa !60
  %10 = tail call ptr @dt_database_get(ptr noundef %9) #19
  %11 = call i32 @sqlite3_prepare_v2(ptr noundef %10, ptr noundef nonnull @.str.10, i32 noundef -1, ptr noundef nonnull %4, ptr noundef null) #19
  %.not6 = icmp eq i32 %11, 0
  br i1 %.not6, label %18, label %12

12:                                               ; preds = %8
  %13 = load ptr, ptr @stderr, align 8, !tbaa !61
  %14 = load ptr, ptr getelementptr inbounds nuw (i8, ptr @darktable, i64 136), align 8, !tbaa !60
  %15 = call ptr @dt_database_get(ptr noundef %14) #19
  %16 = call ptr @sqlite3_errmsg(ptr noundef %15) #19
  %17 = call i32 (ptr, ptr, ...) @fprintf(ptr noundef %13, ptr noundef nonnull @.str.5, ptr noundef nonnull @.str.3, i32 noundef 315, ptr noundef nonnull @__FUNCTION__.dt_lib_presets_remove, ptr noundef nonnull @.str.10, ptr noundef %16) #20
  br label %18

18:                                               ; preds = %12, %8
  %19 = load ptr, ptr %4, align 8, !tbaa !63
  %20 = call i32 @sqlite3_bind_text(ptr noundef %19, i32 noundef 1, ptr noundef %0, i32 noundef -1, ptr noundef nonnull inttoptr (i64 -1 to ptr)) #19
  %.not7 = icmp eq i32 %20, 0
  br i1 %.not7, label %27, label %21

21:                                               ; preds = %18
  %22 = load ptr, ptr @stderr, align 8, !tbaa !61
  %23 = load ptr, ptr getelementptr inbounds nuw (i8, ptr @darktable, i64 136), align 8, !tbaa !60
  %24 = call ptr @dt_database_get(ptr noundef %23) #19
  %25 = call ptr @sqlite3_errmsg(ptr noundef %24) #19
  %26 = call i32 (ptr, ptr, ...) @fprintf(ptr noundef %22, ptr noundef nonnull @.str.6, ptr noundef nonnull @.str.3, i32 noundef 317, ptr noundef nonnull @__FUNCTION__.dt_lib_presets_remove, ptr noundef %25) #20
  br label %27

27:                                               ; preds = %21, %18
  %28 = load ptr, ptr %4, align 8, !tbaa !63
  %29 = call i32 @sqlite3_bind_text(ptr noundef %28, i32 noundef 2, ptr noundef %1, i32 noundef -1, ptr noundef nonnull inttoptr (i64 -1 to ptr)) #19
  %.not8 = icmp eq i32 %29, 0
  br i1 %.not8, label %36, label %30

30:                                               ; preds = %27
  %31 = load ptr, ptr @stderr, align 8, !tbaa !61
  %32 = load ptr, ptr getelementptr inbounds nuw (i8, ptr @darktable, i64 136), align 8, !tbaa !60
  %33 = call ptr @dt_database_get(ptr noundef %32) #19
  %34 = call ptr @sqlite3_errmsg(ptr noundef %33) #19
  %35 = call i32 (ptr, ptr, ...) @fprintf(ptr noundef %31, ptr noundef nonnull @.str.6, ptr noundef nonnull @.str.3, i32 noundef 318, ptr noundef nonnull @__FUNCTION__.dt_lib_presets_remove, ptr noundef %34) #20
  br label %36

36:                                               ; preds = %30, %27
  %37 = load ptr, ptr %4, align 8, !tbaa !63
  %38 = call i32 @sqlite3_bind_int(ptr noundef %37, i32 noundef 3, i32 noundef %2) #19
  %.not9 = icmp eq i32 %38, 0
  br i1 %.not9, label %45, label %39

39:                                               ; preds = %36
  %40 = load ptr, ptr @stderr, align 8, !tbaa !61
  %41 = load ptr, ptr getelementptr inbounds nuw (i8, ptr @darktable, i64 136), align 8, !tbaa !60
  %42 = call ptr @dt_database_get(ptr noundef %41) #19
  %43 = call ptr @sqlite3_errmsg(ptr noundef %42) #19
  %44 = call i32 (ptr, ptr, ...) @fprintf(ptr noundef %40, ptr noundef nonnull @.str.6, ptr noundef nonnull @.str.3, i32 noundef 319, ptr noundef nonnull @__FUNCTION__.dt_lib_presets_remove, ptr noundef %43) #20
  br label %45

45:                                               ; preds = %39, %36
  %46 = load ptr, ptr %4, align 8, !tbaa !63
  %47 = call i32 @sqlite3_step(ptr noundef %46) #19
  %48 = load ptr, ptr %4, align 8, !tbaa !63
  %49 = call i32 @sqlite3_finalize(ptr noundef %48) #19
  call void @llvm.lifetime.end.p0(i64 8, ptr nonnull %4) #19
  ret void
}